; Function Attrs: cold mustprogress nofree nounwind uwtable
define hidden void @_ZN8FileTest9PrintLineEPKcz(ptr noundef nonnull readonly align 8 captures(none) dereferenceable(176) %0, ptr noundef readonly captures(none) %1, ...) local_unnamed_addr #8 align 2 {
  %3 = alloca [1 x %struct.__va_list_tag], align 16
  call void @llvm.lifetime.start.p0(i64 24, ptr nonnull %3) #25
  call void @llvm.va_start.p0(ptr nonnull %3)
  %4 = load ptr, ptr @stderr, align 8, !tbaa !37
  %5 = getelementptr inbounds nuw i8, ptr %0, i64 12
  %6 = load i32, ptr %5, align 4, !tbaa !40
  %7 = call i32 (ptr, ptr, ...) @fprintf(ptr noundef %4, ptr noundef nonnull @.str.6, i32 noundef %6) #26
  %8 = load ptr, ptr @stderr, align 8, !tbaa !37
  %9 = call i32 @vfprintf(ptr noundef %8, ptr noundef %1, ptr noundef nonnull %3) #26
  %10 = load ptr, ptr @stderr, align 8, !tbaa !37
  %fputc = call i32 @fputc(i32 10, ptr %10)
  call void @llvm.va_end.p0(ptr nonnull %3)
  call void @llvm.lifetime.end.p0(i64 24, ptr nonnull %3) #25
  ret void
}